; Function Attrs: mustprogress nounwind uwtable
define dso_local noundef i32 @napi_add_finalizer(ptr noundef %env, ptr noundef %js_object, ptr noundef %finalize_data, ptr noundef %finalize_cb, ptr noundef %finalize_hint, ptr noundef writeonly %result) local_unnamed_addr #3 {
entry:
  %initial_refcount.addr.i = alloca i32, align 4
  %ownership.addr.i = alloca i32, align 4
  %finalize_callback.addr.i = alloca ptr, align 8
  %finalize_data.addr.i = alloca ptr, align 8
  %finalize_hint.addr.i = alloca ptr, align 8
  %cmp = icmp eq ptr %env, null
  br i1 %cmp, label %return, label %do.end

do.end:                                           ; preds = %entry
  %module_api_version.i = getelementptr inbounds i8, ptr %env, i64 184
  %0 = load i32, ptr %module_api_version.i, align 8
  %cmp.i = icmp eq i32 %0, 2147483647
  br i1 %cmp.i, label %land.lhs.true.i, label %_ZN10napi_env__13CheckGCAccessEv.exit

land.lhs.true.i:                                  ; preds = %do.end
  %in_gc_finalizer.i = getelementptr inbounds i8, ptr %env, i64 188
  %1 = load i8, ptr %in_gc_finalizer.i, align 4
  %2 = and i8 %1, 1
  %tobool.not.i = icmp eq i8 %2, 0
  br i1 %tobool.not.i, label %_ZN10napi_env__13CheckGCAccessEv.exit, label %if.then.i

if.then.i:                                        ; preds = %land.lhs.true.i
  tail call void @_ZN6v8impl12OnFatalErrorEPKcS1_(ptr noundef null, ptr noundef nonnull @.str.41) #28
  unreachable

_ZN10napi_env__13CheckGCAccessEv.exit:            ; preds = %do.end, %land.lhs.true.i
  %cmp4.not = icmp eq ptr %js_object, null
  br i1 %cmp4.not, label %if.then5, label %do.body8

if.then5:                                         ; preds = %_ZN10napi_env__13CheckGCAccessEv.exit
  %error_code1.i = getelementptr inbounds i8, ptr %env, i64 156
  store i32 1, ptr %error_code1.i, align 4
  %engine_error_code3.i = getelementptr inbounds i8, ptr %env, i64 152
  store i32 0, ptr %engine_error_code3.i, align 8
  %engine_reserved5.i = getelementptr inbounds i8, ptr %env, i64 144
  store ptr null, ptr %engine_reserved5.i, align 8
  br label %return

do.body8:                                         ; preds = %_ZN10napi_env__13CheckGCAccessEv.exit
  %cmp9.not = icmp eq ptr %finalize_cb, null
  br i1 %cmp9.not, label %if.then10, label %do.end13

if.then10:                                        ; preds = %do.body8
  %error_code1.i11 = getelementptr inbounds i8, ptr %env, i64 156
  store i32 1, ptr %error_code1.i11, align 4
  %engine_error_code3.i12 = getelementptr inbounds i8, ptr %env, i64 152
  store i32 0, ptr %engine_error_code3.i12, align 8
  %engine_reserved5.i13 = getelementptr inbounds i8, ptr %env, i64 144
  store ptr null, ptr %engine_reserved5.i13, align 8
  br label %return

do.end13:                                         ; preds = %do.body8
  %call19 = tail call noundef zeroext i1 @_ZNK2v85Value8IsObjectEv(ptr noundef nonnull align 1 dereferenceable(1) %js_object) #24
  br i1 %call19, label %do.end23, label %if.then20

if.then20:                                        ; preds = %do.end13
  %error_code1.i14 = getelementptr inbounds i8, ptr %env, i64 156
  store i32 1, ptr %error_code1.i14, align 4
  %engine_error_code3.i15 = getelementptr inbounds i8, ptr %env, i64 152
  store i32 0, ptr %engine_error_code3.i15, align 8
  %engine_reserved5.i16 = getelementptr inbounds i8, ptr %env, i64 144
  store ptr null, ptr %engine_reserved5.i16, align 8
  br label %return

do.end23:                                         ; preds = %do.end13
  %cmp24 = icmp ne ptr %result, null
  %cond = zext i1 %cmp24 to i32
  call void @llvm.lifetime.start.p0(i64 4, ptr nonnull %initial_refcount.addr.i)
  call void @llvm.lifetime.start.p0(i64 4, ptr nonnull %ownership.addr.i)
  call void @llvm.lifetime.start.p0(i64 8, ptr nonnull %finalize_callback.addr.i)
  call void @llvm.lifetime.start.p0(i64 8, ptr nonnull %finalize_data.addr.i)
  call void @llvm.lifetime.start.p0(i64 8, ptr nonnull %finalize_hint.addr.i)
  store i32 0, ptr %initial_refcount.addr.i, align 4
  store i32 %cond, ptr %ownership.addr.i, align 4
  store ptr %finalize_cb, ptr %finalize_callback.addr.i, align 8
  store ptr %finalize_data, ptr %finalize_data.addr.i, align 8
  store ptr %finalize_hint, ptr %finalize_hint.addr.i, align 8
  %call.i = tail call noalias noundef nonnull dereferenceable(88) ptr @_Znwm(i64 noundef 88) #25
  call void @_ZN6v8impl9ReferenceC2IJRjRNS_9OwnershipERPFvP10napi_env__PvS7_ERS7_SB_EEES6_N2v85LocalINSC_5ValueEEEDpOT_(ptr noundef nonnull align 8 dereferenceable(81) %call.i, ptr noundef nonnull %env, ptr nonnull %js_object, ptr noundef nonnull align 4 dereferenceable(4) %initial_refcount.addr.i, ptr noundef nonnull align 4 dereferenceable(4) %ownership.addr.i, ptr noundef nonnull align 8 dereferenceable(8) %finalize_callback.addr.i, ptr noundef nonnull align 8 dereferenceable(8) %finalize_data.addr.i, ptr noundef nonnull align 8 dereferenceable(8) %finalize_hint.addr.i)
  call void @llvm.lifetime.end.p0(i64 4, ptr nonnull %initial_refcount.addr.i)
  call void @llvm.lifetime.end.p0(i64 4, ptr nonnull %ownership.addr.i)
  call void @llvm.lifetime.end.p0(i64 8, ptr nonnull %finalize_callback.addr.i)
  call void @llvm.lifetime.end.p0(i64 8, ptr nonnull %finalize_data.addr.i)
  call void @llvm.lifetime.end.p0(i64 8, ptr nonnull %finalize_hint.addr.i)
  %cmp29.not = icmp eq ptr %result, null
  br i1 %cmp29.not, label %if.end31, label %if.then30

if.then30:                                        ; preds = %do.end23
  store ptr %call.i, ptr %result, align 8
  br label %if.end31

if.end31:                                         ; preds = %if.then30, %do.end23
  %last_error.i = getelementptr inbounds i8, ptr %env, i64 136
  call void @llvm.memset.p0.i64(ptr noundef nonnull align 8 dereferenceable(24) %last_error.i, i8 0, i64 24, i1 false)
  br label %return

return:                                           ; preds = %entry, %if.end31, %if.then20, %if.then10, %if.then5
  %retval.0 = phi i32 [ 0, %if.end31 ], [ 1, %if.then20 ], [ 1, %if.then10 ], [ 1, %if.then5 ], [ 1, %entry ]
  ret i32 %retval.0
}